; Function Attrs: mustprogress uwtable
define noundef zeroext i1 @_ZN5boost6locale4util11locale_data18parse_from_variantERKNSt7__cxx1112basic_stringIcSt11char_traitsIcESaIcEEE(ptr noundef nonnull align 8 dereferenceable(129) %0, ptr noundef nonnull align 8 dereferenceable(32) %1) local_unnamed_addr #0 align 2 {
  %3 = tail call noundef i32 @_ZNKSt7__cxx1112basic_stringIcSt11char_traitsIcESaIcEE7compareEPKc(ptr noundef nonnull align 8 dereferenceable(32) %0, ptr noundef nonnull @.str.1) #15
  %4 = icmp ne i32 %3, 0
  %5 = getelementptr inbounds nuw i8, ptr %1, i64 8
  %6 = load i64, ptr %5, align 8
  %7 = icmp ne i64 %6, 0
  %or.cond.not = select i1 %4, i1 %7, i1 false
  br i1 %or.cond.not, label %8, label %.loopexit

8:                                                ; preds = %2
  %9 = getelementptr inbounds nuw i8, ptr %0, i64 96
  tail call void @_ZNSt7__cxx1112basic_stringIcSt11char_traitsIcESaIcEE9_M_assignERKS4_(ptr noundef nonnull align 8 dereferenceable(32) %9, ptr noundef nonnull align 8 dereferenceable(32) %1)
  %10 = load ptr, ptr %9, align 8, !tbaa !12
  %11 = getelementptr inbounds nuw i8, ptr %0, i64 104
  %12 = load i64, ptr %11, align 8, !tbaa !8
  %13 = getelementptr inbounds nuw i8, ptr %10, i64 %12
  %.not15 = icmp eq i64 %12, 0
  br i1 %.not15, label %.loopexit, label %.lr.ph

.lr.ph:                                           ; preds = %8, %19
  %.sroa.08.016 = phi ptr [ %20, %19 ], [ %10, %8 ]
  %14 = load i8, ptr %.sroa.08.016, align 1, !tbaa !11
  %15 = add i8 %14, -65
  %16 = icmp ult i8 %15, 26
  br i1 %16, label %17, label %19

17:                                               ; preds = %.lr.ph
  %18 = or disjoint i8 %14, 32
  store i8 %18, ptr %.sroa.08.016, align 1, !tbaa !11
  br label %19

19:                                               ; preds = %17, %.lr.ph
  %20 = getelementptr inbounds nuw i8, ptr %.sroa.08.016, i64 1
  %.not = icmp eq ptr %20, %13
  br i1 %.not, label %.loopexit, label %.lr.ph

.loopexit:                                        ; preds = %19, %8, %2
  ret i1 %or.cond.not
}